target datalayout = "e-m:e-p270:32:32-p271:32:32-p272:64:64-i64:64-i128:128-f80:128-n8:16:32:64-S128"
target triple = "x86_64-pc-linux-gnu"

%struct.marshal_compat_t = type { i64, i64, ptr, ptr }

; Function Attrs: nounwind sspstrong uwtable
define internal i32 @marshal_compat_table_mark_i(i64 noundef %0, i64 noundef %1, i64 noundef %2) #0 {
  %4 = alloca i64, align 8
  %5 = alloca i64, align 8
  %6 = alloca i64, align 8
  %7 = alloca ptr, align 8
  store i64 %0, ptr %4, align 8, !tbaa !7
  store i64 %1, ptr %5, align 8, !tbaa !7
  store i64 %2, ptr %6, align 8, !tbaa !7
  call void @llvm.lifetime.start.p0(i64 8, ptr %7) #23
  %8 = load i64, ptr %5, align 8, !tbaa !7
  %9 = inttoptr i64 %8 to ptr
  store ptr %9, ptr %7, align 8, !tbaa !11
  %10 = load ptr, ptr %7, align 8, !tbaa !11
  %11 = getelementptr inbounds nuw %struct.marshal_compat_t, ptr %10, i32 0, i32 0
  %12 = load i64, ptr %11, align 8, !tbaa !73
  call void @rb_gc_mark_movable(i64 noundef %12)
  %13 = load ptr, ptr %7, align 8, !tbaa !11
  %14 = getelementptr inbounds nuw %struct.marshal_compat_t, ptr %13, i32 0, i32 1
  %15 = load i64, ptr %14, align 8, !tbaa !74
  call void @rb_gc_mark_movable(i64 noundef %15)
  call void @llvm.lifetime.end.p0(i64 8, ptr %7) #23
  ret i32 0
}