; Function Attrs: nounwind sspstrong uwtable
define internal noundef i32 @marshal_compat_table_mark_i(i64 %0, i64 noundef %1, i64 %2) #0 {
  %4 = inttoptr i64 %1 to ptr
  %5 = load i64, ptr %4, align 8, !tbaa !61
  tail call void @rb_gc_mark_movable(i64 noundef %5) #22
  %6 = getelementptr inbounds nuw i8, ptr %4, i64 8
  %7 = load i64, ptr %6, align 8, !tbaa !62
  tail call void @rb_gc_mark_movable(i64 noundef %7) #22
  ret i32 0
}